; ModuleID = 'source-C-CXX/33/1684.cpp'
source_filename = "source-C-CXX/33/1684.cpp"
target datalayout = "e-m:e-p270:32:32-p271:32:32-p272:64:64-i64:64-f80:128-n8:16:32:64-S128"
target triple = "x86_64-pc-linux-gnu"

%"class.std::ios_base::Init" = type { i8 }
%"class.std::basic_ostream" = type { i32 (...)**, %"class.std::basic_ios" }
%"class.std::basic_ios" = type { %"class.std::ios_base", %"class.std::basic_ostream"*, i8, i8, %"class.std::basic_streambuf"*, %"class.std::ctype"*, %"class.std::num_put"*, %"class.std::num_get"* }
%"class.std::ios_base" = type { i32 (...)**, i64, i64, i32, i32, i32, %"struct.std::ios_base::_Callback_list"*, %"struct.std::ios_base::_Words", [8 x %"struct.std::ios_base::_Words"], i32, %"struct.std::ios_base::_Words"*, %"class.std::locale" }
%"struct.std::ios_base::_Callback_list" = type { %"struct.std::ios_base::_Callback_list"*, void (i32, %"class.std::ios_base"*, i32)*, i32, i32 }
%"struct.std::ios_base::_Words" = type { i8*, i64 }
%"class.std::locale" = type { %"class.std::locale::_Impl"* }
%"class.std::locale::_Impl" = type { i32, %"class.std::locale::facet"**, i64, %"class.std::locale::facet"**, i8** }
%"class.std::locale::facet" = type <{ i32 (...)**, i32, [4 x i8] }>
%"class.std::basic_streambuf" = type { i32 (...)**, i8*, i8*, i8*, i8*, i8*, i8*, %"class.std::locale" }
%"class.std::ctype" = type <{ %"class.std::locale::facet.base", [4 x i8], %struct.__locale_struct*, i8, [7 x i8], i32*, i32*, i16*, i8, [256 x i8], [256 x i8], i8, [6 x i8] }>
%"class.std::locale::facet.base" = type <{ i32 (...)**, i32 }>
%struct.__locale_struct = type { [13 x %struct.__locale_data*], i16*, i32*, i32*, [13 x i8*] }
%struct.__locale_data = type opaque
%"class.std::num_put" = type { %"class.std::locale::facet.base", [4 x i8] }
%"class.std::num_get" = type { %"class.std::locale::facet.base", [4 x i8] }
%"class.std::basic_istream" = type { i32 (...)**, i64, %"class.std::basic_ios" }

@_ZStL8__ioinit = internal global %"class.std::ios_base::Init" zeroinitializer, align 1
@__dso_handle = external hidden global i8
@_ZSt4cout = external global %"class.std::basic_ostream", align 8
@.str = private unnamed_addr constant [4 x i8] c"End\00", align 1
@_ZSt3cin = external global %"class.std::basic_istream", align 8
@llvm.global_ctors = appending global [1 x { i32, void ()*, i8* }] [{ i32, void ()*, i8* } { i32 65535, void ()* @_GLOBAL__sub_I_1684.cpp, i8* null }]

declare void @_ZNSt8ios_base4InitC1Ev(%"class.std::ios_base::Init"* nonnull align 1 dereferenceable(1)) unnamed_addr #0

; Function Attrs: nounwind
declare void @_ZNSt8ios_base4InitD1Ev(%"class.std::ios_base::Init"* nonnull align 1 dereferenceable(1)) unnamed_addr #1

; Function Attrs: nofree nounwind
declare i32 @__cxa_atexit(void (i8*)*, i8*, i8*) local_unnamed_addr #2

; Function Attrs: mustprogress sspstrong uwtable
define dso_local void @_Z1fi(i32 %0) local_unnamed_addr #3 {
  %2 = alloca i8, align 1
  %3 = alloca i8, align 1
  %4 = alloca i8, align 1
  %5 = alloca i8, align 1
  %6 = alloca i8, align 1
  %7 = icmp eq i32 %0, 1
  br i1 %7, label %8, label %10

8:                                                ; preds = %1
  %9 = tail call nonnull align 8 dereferenceable(8) %"class.std::basic_ostream"* @_ZSt16__ostream_insertIcSt11char_traitsIcEERSt13basic_ostreamIT_T0_ES6_PKS3_l(%"class.std::basic_ostream"* nonnull align 8 dereferenceable(8) @_ZSt4cout, i8* nonnull getelementptr inbounds ([4 x i8], [4 x i8]* @.str, i64 0, i64 0), i64 3)
  br label %87

10:                                               ; preds = %1
  %11 = srem i32 %0, 2
  %12 = sdiv i32 %0, 2
  switch i32 %11, label %87 [
    i32 0, label %13
    i32 1, label %48
  ]

13:                                               ; preds = %10
  %14 = tail call nonnull align 8 dereferenceable(8) %"class.std::basic_ostream"* @_ZNSolsEi(%"class.std::basic_ostream"* nonnull align 8 dereferenceable(8) @_ZSt4cout, i32 %0)
  call void @llvm.lifetime.start.p0i8(i64 1, i8* nonnull %6)
  store i8 47, i8* %6, align 1, !tbaa !5
  %15 = call nonnull align 8 dereferenceable(8) %"class.std::basic_ostream"* @_ZSt16__ostream_insertIcSt11char_traitsIcEERSt13basic_ostreamIT_T0_ES6_PKS3_l(%"class.std::basic_ostream"* nonnull align 8 dereferenceable(8) %14, i8* nonnull %6, i64 1)
  call void @llvm.lifetime.end.p0i8(i64 1, i8* nonnull %6)
  %16 = call nonnull align 8 dereferenceable(8) %"class.std::basic_ostream"* @_ZNSolsEi(%"class.std::basic_ostream"* nonnull align 8 dereferenceable(8) %15, i32 2)
  call void @llvm.lifetime.start.p0i8(i64 1, i8* nonnull %5)
  store i8 61, i8* %5, align 1, !tbaa !5
  %17 = call nonnull align 8 dereferenceable(8) %"class.std::basic_ostream"* @_ZSt16__ostream_insertIcSt11char_traitsIcEERSt13basic_ostreamIT_T0_ES6_PKS3_l(%"class.std::basic_ostream"* nonnull align 8 dereferenceable(8) %16, i8* nonnull %5, i64 1)
  call void @llvm.lifetime.end.p0i8(i64 1, i8* nonnull %5)
  %18 = call nonnull align 8 dereferenceable(8) %"class.std::basic_ostream"* @_ZNSolsEi(%"class.std::basic_ostream"* nonnull align 8 dereferenceable(8) %17, i32 %12)
  %19 = bitcast %"class.std::basic_ostream"* %18 to i8**
  %20 = load i8*, i8** %19, align 8, !tbaa !8
  %21 = getelementptr i8, i8* %20, i64 -24
  %22 = bitcast i8* %21 to i64*
  %23 = load i64, i64* %22, align 8
  %24 = bitcast %"class.std::basic_ostream"* %18 to i8*
  %25 = add nsw i64 %23, 240
  %26 = getelementptr inbounds i8, i8* %24, i64 %25
  %27 = bitcast i8* %26 to %"class.std::ctype"**
  %28 = load %"class.std::ctype"*, %"class.std::ctype"** %27, align 8, !tbaa !10
  %29 = icmp eq %"class.std::ctype"* %28, null
  br i1 %29, label %30, label %31

30:                                               ; preds = %13
  call void @_ZSt16__throw_bad_castv() #8
  unreachable

31:                                               ; preds = %13
  %32 = getelementptr inbounds %"class.std::ctype", %"class.std::ctype"* %28, i64 0, i32 8
  %33 = load i8, i8* %32, align 8, !tbaa !14
  %34 = icmp eq i8 %33, 0
  br i1 %34, label %38, label %35

35:                                               ; preds = %31
  %36 = getelementptr inbounds %"class.std::ctype", %"class.std::ctype"* %28, i64 0, i32 9, i64 10
  %37 = load i8, i8* %36, align 1, !tbaa !5
  br label %44

38:                                               ; preds = %31
  call void @_ZNKSt5ctypeIcE13_M_widen_initEv(%"class.std::ctype"* nonnull align 8 dereferenceable(570) %28)
  %39 = bitcast %"class.std::ctype"* %28 to i8 (%"class.std::ctype"*, i8)***
  %40 = load i8 (%"class.std::ctype"*, i8)**, i8 (%"class.std::ctype"*, i8)*** %39, align 8, !tbaa !8
  %41 = getelementptr inbounds i8 (%"class.std::ctype"*, i8)*, i8 (%"class.std::ctype"*, i8)** %40, i64 6
  %42 = load i8 (%"class.std::ctype"*, i8)*, i8 (%"class.std::ctype"*, i8)** %41, align 8
  %43 = call signext i8 %42(%"class.std::ctype"* nonnull align 8 dereferenceable(570) %28, i8 signext 10)
  br label %44

44:                                               ; preds = %35, %38
  %45 = phi i8 [ %37, %35 ], [ %43, %38 ]
  %46 = call nonnull align 8 dereferenceable(8) %"class.std::basic_ostream"* @_ZNSo3putEc(%"class.std::basic_ostream"* nonnull align 8 dereferenceable(8) %18, i8 signext %45)
  %47 = call nonnull align 8 dereferenceable(8) %"class.std::basic_ostream"* @_ZNSo5flushEv(%"class.std::basic_ostream"* nonnull align 8 dereferenceable(8) %46)
  call void @_Z1fi(i32 %12)
  br label %87

48:                                               ; preds = %10
  %49 = tail call nonnull align 8 dereferenceable(8) %"class.std::basic_ostream"* @_ZNSolsEi(%"class.std::basic_ostream"* nonnull align 8 dereferenceable(8) @_ZSt4cout, i32 %0)
  call void @llvm.lifetime.start.p0i8(i64 1, i8* nonnull %4)
  store i8 42, i8* %4, align 1, !tbaa !5
  %50 = call nonnull align 8 dereferenceable(8) %"class.std::basic_ostream"* @_ZSt16__ostream_insertIcSt11char_traitsIcEERSt13basic_ostreamIT_T0_ES6_PKS3_l(%"class.std::basic_ostream"* nonnull align 8 dereferenceable(8) %49, i8* nonnull %4, i64 1)
  call void @llvm.lifetime.end.p0i8(i64 1, i8* nonnull %4)
  %51 = call nonnull align 8 dereferenceable(8) %"class.std::basic_ostream"* @_ZNSolsEi(%"class.std::basic_ostream"* nonnull align 8 dereferenceable(8) %50, i32 3)
  call void @llvm.lifetime.start.p0i8(i64 1, i8* nonnull %3)
  store i8 43, i8* %3, align 1, !tbaa !5
  %52 = call nonnull align 8 dereferenceable(8) %"class.std::basic_ostream"* @_ZSt16__ostream_insertIcSt11char_traitsIcEERSt13basic_ostreamIT_T0_ES6_PKS3_l(%"class.std::basic_ostream"* nonnull align 8 dereferenceable(8) %51, i8* nonnull %3, i64 1)
  call void @llvm.lifetime.end.p0i8(i64 1, i8* nonnull %3)
  %53 = call nonnull align 8 dereferenceable(8) %"class.std::basic_ostream"* @_ZNSolsEi(%"class.std::basic_ostream"* nonnull align 8 dereferenceable(8) %52, i32 1)
  call void @llvm.lifetime.start.p0i8(i64 1, i8* nonnull %2)
  store i8 61, i8* %2, align 1, !tbaa !5
  %54 = call nonnull align 8 dereferenceable(8) %"class.std::basic_ostream"* @_ZSt16__ostream_insertIcSt11char_traitsIcEERSt13basic_ostreamIT_T0_ES6_PKS3_l(%"class.std::basic_ostream"* nonnull align 8 dereferenceable(8) %53, i8* nonnull %2, i64 1)
  call void @llvm.lifetime.end.p0i8(i64 1, i8* nonnull %2)
  %55 = mul nsw i32 %0, 3
  %56 = add nsw i32 %55, 1
  %57 = call nonnull align 8 dereferenceable(8) %"class.std::basic_ostream"* @_ZNSolsEi(%"class.std::basic_ostream"* nonnull align 8 dereferenceable(8) %54, i32 %56)
  %58 = bitcast %"class.std::basic_ostream"* %57 to i8**
  %59 = load i8*, i8** %58, align 8, !tbaa !8
  %60 = getelementptr i8, i8* %59, i64 -24
  %61 = bitcast i8* %60 to i64*
  %62 = load i64, i64* %61, align 8
  %63 = bitcast %"class.std::basic_ostream"* %57 to i8*
  %64 = add nsw i64 %62, 240
  %65 = getelementptr inbounds i8, i8* %63, i64 %64
  %66 = bitcast i8* %65 to %"class.std::ctype"**
  %67 = load %"class.std::ctype"*, %"class.std::ctype"** %66, align 8, !tbaa !10
  %68 = icmp eq %"class.std::ctype"* %67, null
  br i1 %68, label %69, label %70

69:                                               ; preds = %48
  call void @_ZSt16__throw_bad_castv() #8
  unreachable

70:                                               ; preds = %48
  %71 = getelementptr inbounds %"class.std::ctype", %"class.std::ctype"* %67, i64 0, i32 8
  %72 = load i8, i8* %71, align 8, !tbaa !14
  %73 = icmp eq i8 %72, 0
  br i1 %73, label %77, label %74

74:                                               ; preds = %70
  %75 = getelementptr inbounds %"class.std::ctype", %"class.std::ctype"* %67, i64 0, i32 9, i64 10
  %76 = load i8, i8* %75, align 1, !tbaa !5
  br label %83

77:                                               ; preds = %70
  call void @_ZNKSt5ctypeIcE13_M_widen_initEv(%"class.std::ctype"* nonnull align 8 dereferenceable(570) %67)
  %78 = bitcast %"class.std::ctype"* %67 to i8 (%"class.std::ctype"*, i8)***
  %79 = load i8 (%"class.std::ctype"*, i8)**, i8 (%"class.std::ctype"*, i8)*** %78, align 8, !tbaa !8
  %80 = getelementptr inbounds i8 (%"class.std::ctype"*, i8)*, i8 (%"class.std::ctype"*, i8)** %79, i64 6
  %81 = load i8 (%"class.std::ctype"*, i8)*, i8 (%"class.std::ctype"*, i8)** %80, align 8
  %82 = call signext i8 %81(%"class.std::ctype"* nonnull align 8 dereferenceable(570) %67, i8 signext 10)
  br label %83

83:                                               ; preds = %74, %77
  %84 = phi i8 [ %76, %74 ], [ %82, %77 ]
  %85 = call nonnull align 8 dereferenceable(8) %"class.std::basic_ostream"* @_ZNSo3putEc(%"class.std::basic_ostream"* nonnull align 8 dereferenceable(8) %57, i8 signext %84)
  %86 = call nonnull align 8 dereferenceable(8) %"class.std::basic_ostream"* @_ZNSo5flushEv(%"class.std::basic_ostream"* nonnull align 8 dereferenceable(8) %85)
  call void @_Z1fi(i32 %56)
  br label %87

87:                                               ; preds = %44, %10, %8, %83
  ret void
}

declare nonnull align 8 dereferenceable(8) %"class.std::basic_ostream"* @_ZNSolsEi(%"class.std::basic_ostream"* nonnull align 8 dereferenceable(8), i32) local_unnamed_addr #0

; Function Attrs: mustprogress norecurse sspstrong uwtable
define dso_local i32 @main() local_unnamed_addr #4 {
  %1 = alloca i32, align 4
  %2 = bitcast i32* %1 to i8*
  call void @llvm.lifetime.start.p0i8(i64 4, i8* nonnull %2) #9
  %3 = call nonnull align 8 dereferenceable(16) %"class.std::basic_istream"* @_ZNSirsERi(%"class.std::basic_istream"* nonnull align 8 dereferenceable(16) @_ZSt3cin, i32* nonnull align 4 dereferenceable(4) %1)
  %4 = load i32, i32* %1, align 4, !tbaa !16
  call void @_Z1fi(i32 %4)
  call void @llvm.lifetime.end.p0i8(i64 4, i8* nonnull %2) #9
  ret i32 0
}

; Function Attrs: argmemonly mustprogress nofree nosync nounwind willreturn
declare void @llvm.lifetime.start.p0i8(i64 immarg, i8* nocapture) #5

declare nonnull align 8 dereferenceable(16) %"class.std::basic_istream"* @_ZNSirsERi(%"class.std::basic_istream"* nonnull align 8 dereferenceable(16), i32* nonnull align 4 dereferenceable(4)) local_unnamed_addr #0

; Function Attrs: argmemonly mustprogress nofree nosync nounwind willreturn
declare void @llvm.lifetime.end.p0i8(i64 immarg, i8* nocapture) #5

declare nonnull align 8 dereferenceable(8) %"class.std::basic_ostream"* @_ZSt16__ostream_insertIcSt11char_traitsIcEERSt13basic_ostreamIT_T0_ES6_PKS3_l(%"class.std::basic_ostream"* nonnull align 8 dereferenceable(8), i8*, i64) local_unnamed_addr #0

declare nonnull align 8 dereferenceable(8) %"class.std::basic_ostream"* @_ZNSo3putEc(%"class.std::basic_ostream"* nonnull align 8 dereferenceable(8), i8 signext) local_unnamed_addr #0

declare nonnull align 8 dereferenceable(8) %"class.std::basic_ostream"* @_ZNSo5flushEv(%"class.std::basic_ostream"* nonnull align 8 dereferenceable(8)) local_unnamed_addr #0

; Function Attrs: noreturn
declare void @_ZSt16__throw_bad_castv() local_unnamed_addr #6

declare void @_ZNKSt5ctypeIcE13_M_widen_initEv(%"class.std::ctype"* nonnull align 8 dereferenceable(570)) local_unnamed_addr #0

; Function Attrs: sspstrong uwtable
define internal void @_GLOBAL__sub_I_1684.cpp() #7 section ".text.startup" {
  tail call void @_ZNSt8ios_base4InitC1Ev(%"class.std::ios_base::Init"* nonnull align 1 dereferenceable(1) @_ZStL8__ioinit)
  %1 = tail call i32 @__cxa_atexit(void (i8*)* bitcast (void (%"class.std::ios_base::Init"*)* @_ZNSt8ios_base4InitD1Ev to void (i8*)*), i8* getelementptr inbounds (%"class.std::ios_base::Init", %"class.std::ios_base::Init"* @_ZStL8__ioinit, i64 0, i32 0), i8* nonnull @__dso_handle) #9
  ret void
}


!llvm.module.flags = !{!0, !1, !2, !3}
!llvm.ident = !{!4}

!0 = !{i32 1, !"wchar_size", i32 4}
!1 = !{i32 7, !"PIC Level", i32 2}
!2 = !{i32 7, !"PIE Level", i32 2}
!3 = !{i32 7, !"uwtable", i32 1}
!4 = !{!"clang version 13.0.0"}
!5 = !{!6, !6, i64 0}
!6 = !{!"omnipotent char", !7, i64 0}
!7 = !{!"Simple C++ TBAA"}
!8 = !{!9, !9, i64 0}
!9 = !{!"vtable pointer", !7, i64 0}
!10 = !{!11, !12, i64 240}
!11 = !{!"_ZTSSt9basic_iosIcSt11char_traitsIcEE", !12, i64 216, !6, i64 224, !13, i64 225, !12, i64 232, !12, i64 240, !12, i64 248, !12, i64 256}
!12 = !{!"any pointer", !6, i64 0}
!13 = !{!"bool", !6, i64 0}
!14 = !{!15, !6, i64 56}
!15 = !{!"_ZTSSt5ctypeIcE", !12, i64 16, !13, i64 24, !12, i64 32, !12, i64 40, !12, i64 48, !6, i64 56, !6, i64 57, !6, i64 313, !6, i64 569}
!16 = !{!17, !17, i64 0}
!17 = !{!"int", !6, i64 0}
